; Function Attrs: mustprogress noreturn uwtable
define void @_ZN2cv3ogl9Texture2DC2EiiNS1_6FormatEjb(ptr nocapture noundef nonnull align 8 dereferenceable(28) %0, i32 %1, i32 %2, i32 %3, i32 %4, i1 zeroext %5) unnamed_addr #0 align 2 personality ptr @__gxx_personality_v0 {
  tail call void @llvm.memset.p0.i64(ptr noundef nonnull align 8 dereferenceable(28) %0, i8 0, i64 28, i1 false)
  invoke fastcc void @_ZN12_GLOBAL__N_112throw_no_oglEv() #9
          to label %7 unwind label %8

7:                                                ; preds = %6
  unreachable

8:                                                ; preds = %6
  %9 = landingpad { ptr, i32 }
          cleanup
  %10 = getelementptr inbounds i8, ptr %0, i64 8
  %11 = load ptr, ptr %10, align 8
  %.not.i.i.i.i = icmp eq ptr %11, null
  br i1 %.not.i.i.i.i, label %_ZN2cv3PtrINS_3ogl9Texture2D4ImplEED2Ev.exit, label %12

12:                                               ; preds = %8
  %13 = getelementptr inbounds i8, ptr %11, i64 8
  %14 = load atomic i64, ptr %13 acquire, align 8
  %15 = icmp eq i64 %14, 4294967297
  %16 = trunc i64 %14 to i32
  br i1 %15, label %17, label %22

17:                                               ; preds = %12
  store i32 0, ptr %13, align 8
  %18 = getelementptr inbounds i8, ptr %11, i64 12
  store i32 0, ptr %18, align 4
  %19 = load ptr, ptr %11, align 8
  %20 = getelementptr inbounds i8, ptr %19, i64 16
  %21 = load ptr, ptr %20, align 8
  tail call void %21(ptr noundef nonnull align 8 dereferenceable(16) %11) #10
  br label %_ZNSt16_Sp_counted_baseILN9__gnu_cxx12_Lock_policyE2EE24_M_release_last_use_coldEv.exit.sink.split.i.i.i.i.i

22:                                               ; preds = %12
  %23 = load i8, ptr @__libc_single_threaded, align 1
  %.not.i.i.i.i.i = icmp eq i8 %23, 0
  br i1 %.not.i.i.i.i.i, label %26, label %24

24:                                               ; preds = %22
  %25 = add nsw i32 %16, -1
  store i32 %25, ptr %13, align 4
  br label %28

26:                                               ; preds = %22
  %27 = atomicrmw volatile add ptr %13, i32 -1 acq_rel, align 4
  br label %28

28:                                               ; preds = %26, %24
  %.0.i.i.i.i.i = phi i32 [ %16, %24 ], [ %27, %26 ]
  %29 = icmp eq i32 %.0.i.i.i.i.i, 1
  br i1 %29, label %30, label %_ZN2cv3PtrINS_3ogl9Texture2D4ImplEED2Ev.exit

30:                                               ; preds = %28
  %31 = load ptr, ptr %11, align 8
  %32 = getelementptr inbounds i8, ptr %31, i64 16
  %33 = load ptr, ptr %32, align 8
  tail call void %33(ptr noundef nonnull align 8 dereferenceable(16) %11) #10
  %34 = getelementptr inbounds i8, ptr %11, i64 12
  %35 = load i8, ptr @__libc_single_threaded, align 1
  %.not.i.i.i.i.i.i.i = icmp eq i8 %35, 0
  br i1 %.not.i.i.i.i.i.i.i, label %39, label %36

36:                                               ; preds = %30
  %37 = load i32, ptr %34, align 4
  %38 = add nsw i32 %37, -1
  store i32 %38, ptr %34, align 4
  br label %41

39:                                               ; preds = %30
  %40 = atomicrmw volatile add ptr %34, i32 -1 acq_rel, align 4
  br label %41

41:                                               ; preds = %39, %36
  %.0.i.i.i.i.i.i.i = phi i32 [ %37, %36 ], [ %40, %39 ]
  %42 = icmp eq i32 %.0.i.i.i.i.i.i.i, 1
  br i1 %42, label %_ZNSt16_Sp_counted_baseILN9__gnu_cxx12_Lock_policyE2EE24_M_release_last_use_coldEv.exit.sink.split.i.i.i.i.i, label %_ZN2cv3PtrINS_3ogl9Texture2D4ImplEED2Ev.exit

_ZNSt16_Sp_counted_baseILN9__gnu_cxx12_Lock_policyE2EE24_M_release_last_use_coldEv.exit.sink.split.i.i.i.i.i: ; preds = %41, %17
  %43 = load ptr, ptr %11, align 8
  %44 = getelementptr inbounds i8, ptr %43, i64 24
  %45 = load ptr, ptr %44, align 8
  tail call void %45(ptr noundef nonnull align 8 dereferenceable(16) %11) #10
  br label %_ZN2cv3PtrINS_3ogl9Texture2D4ImplEED2Ev.exit

_ZN2cv3PtrINS_3ogl9Texture2D4ImplEED2Ev.exit:     ; preds = %8, %28, %41, %_ZNSt16_Sp_counted_baseILN9__gnu_cxx12_Lock_policyE2EE24_M_release_last_use_coldEv.exit.sink.split.i.i.i.i.i
  resume { ptr, i32 } %9
}